(dp1
S'twisted_reactors'
p2
ccopy_reg
_reconstructor
p3
(ctwisted.plugin
CachedDropin
p4
c__builtin__
object
p5
NtRp6
(dp7
S'moduleName'
p8
S'twisted.plugins.twisted_reactors'
p9
sS'description'
p10
NsS'plugins'
p11
(lp12
g3
(ctwisted.plugin
CachedPlugin
p13
g5
NtRp14
(dp15
S'provided'
p16
(lp17
ctwisted.plugin
IPlugin
p18
actwisted.application.reactors
IReactorInstaller
p19
asS'dropin'
p20
g6
sS'name'
p21
S'kqueue'
p22
sg10
S'\n    @ivar moduleName: The fully-qualified Python name of the module of which\n    the install callable is an attribute.\n    '
p23
sbag3
(g13
g5
NtRp24
(dp25
g16
(lp26
g18
ag19
asg20
g6
sg21
S'win32er'
p27
sg10
g23
sbag3
(g13
g5
NtRp28
(dp29
g16
(lp30
g18
ag19
asg20
g6
sg21
S'epoll'
p31
sg10
g23
sbag3
(g13
g5
NtRp32
(dp33
g16
(lp34
g18
ag19
asg20
g6
sg21
S'iocp'
p35
sg10
g23
sbag3
(g13
g5
NtRp36
(dp37
g16
(lp38
g18
ag19
asg20
g6
sg21
S'gtk'
p39
sg10
g23
sbag3
(g13
g5
NtRp40
(dp41
g16
(lp42
g18
ag19
asg20
g6
sg21
S'cf'
p43
sg10
g23
sbag3
(g13
g5
NtRp44
(dp45
g16
(lp46
g18
ag19
asg20
g6
sg21
S'gtk2'
p47
sg10
g23
sbag3
(g13
g5
NtRp48
(dp49
g16
(lp50
g18
ag19
asg20
g6
sg21
S'default'
p51
sg10
g23
sbag3
(g13
g5
NtRp52
(dp53
g16
(lp54
g18
ag19
asg20
g6
sg21
S'glade'
p55
sg10
g23
sbag3
(g13
g5
NtRp56
(dp57
g16
(lp58
g18
ag19
asg20
g6
sg21
S'poll'
p59
sg10
g23
sbag3
(g13
g5
NtRp60
(dp61
g16
(lp62
g18
ag19
asg20
g6
sg21
S'glib2'
p63
sg10
g23
sbag3
(g13
g5
NtRp64
(dp65
g16
(lp66
g18
ag19
asg20
g6
sg21
S'select'
p67
sg10
g23
sbag3
(g13
g5
NtRp68
(dp69
g16
(lp70
g18
ag19
asg20
g6
sg21
S'wx'
p71
sg10
g23
sbasbsS'cred_memory'
p72
g3
(g4
g5
NtRp73
(dp74
g8
S'twisted.plugins.cred_memory'
p75
sg10
S'\nCred plugin for an in-memory user database.\n'
p76
sg11
(lp77
g3
(g13
g5
NtRp78
(dp79
g16
(lp80
ctwisted.cred.strcred
ICheckerFactory
p81
ag18
asg20
g73
sg21
S'theInMemoryCheckerFactory'
p82
sg10
S"\n    A factory for in-memory credentials checkers.\n\n    This is only of use in one-off test programs or examples which don't\n    want to focus too much on how credentials are verified.\n\n    You really don't want to use this for anything else.  It is, at best, a\n    toy.  If you need a simple credentials checker for a real application,\n    see L{cred_passwd.PasswdCheckerFactory}.\n    "
p83
sbasbsS'twisted_web'
p84
g3
(g4
g5
NtRp85
(dp86
g8
S'twisted.plugins.twisted_web'
p87
sg10
Nsg11
(lp88
g3
(g13
g5
NtRp89
(dp90
g16
(lp91
g18
actwisted.application.service
IServiceMaker
p92
asg20
g85
sg21
S'TwistedWeb'
p93
sg10
S'\n    Utility class to simplify the definition of L{IServiceMaker} plugins.\n    '
p94
sbasbsS'twisted_inet'
p95
g3
(g4
g5
NtRp96
(dp97
g8
S'twisted.plugins.twisted_inet'
p98
sg10
Nsg11
(lp99
g3
(g13
g5
NtRp100
(dp101
g16
(lp102
g18
ag92
asg20
g96
sg21
S'TwistedINETD'
p103
sg10
g94
sbasbsS'cred_file'
p104
g3
(g4
g5
NtRp105
(dp106
g8
S'twisted.plugins.cred_file'
p107
sg10
S"\nCred plugin for a file of the format 'username:password'.\n"
p108
sg11
(lp109
g3
(g13
g5
NtRp110
(dp111
g16
(lp112
g81
ag18
asg20
g105
sg21
S'theFileCheckerFactory'
p113
sg10
S'\n    A factory for instances of L{FilePasswordDB}.\n    '
p114
sbasbsS'twisted_trial'
p115
g3
(g4
g5
NtRp116
(dp117
g8
S'twisted.plugins.twisted_trial'
p118
sg10
Nsg11
(lp119
g3
(g13
g5
NtRp120
(dp121
g16
(lp122
g18
actwisted.trial.itrial
IReporter
p123
asg20
g116
sg21
S'BlackAndWhite'
p124
sg10
Nsbag3
(g13
g5
NtRp125
(dp126
g16
(lp127
g18
ag123
asg20
g116
sg21
S'Classic'
p128
sg10
Nsbag3
(g13
g5
NtRp129
(dp130
g16
(lp131
g18
ag123
asg20
g116
sg21
S'Tree'
p132
sg10
Nsbag3
(g13
g5
NtRp133
(dp134
g16
(lp135
g18
ag123
asg20
g116
sg21
S'Timing'
p136
sg10
Nsbag3
(g13
g5
NtRp137
(dp138
g16
(lp139
g18
ag123
asg20
g116
sg21
S'Minimal'
p140
sg10
NsbasbsS'twisted_ftp'
p141
g3
(g4
g5
NtRp142
(dp143
g8
S'twisted.plugins.twisted_ftp'
p144
sg10
Nsg11
(lp145
g3
(g13
g5
NtRp146
(dp147
g16
(lp148
g18
ag92
asg20
g142
sg21
S'TwistedFTP'
p149
sg10
g94
sbasbsS'twisted_telnet'
p150
g3
(g4
g5
NtRp151
(dp152
g8
S'twisted.plugins.twisted_telnet'
p153
sg10
Nsg11
(lp154
g3
(g13
g5
NtRp155
(dp156
g16
(lp157
g18
ag92
asg20
g151
sg21
S'TwistedTelnet'
p158
sg10
g94
sbasbsS'twisted_news'
p159
g3
(g4
g5
NtRp160
(dp161
g8
S'twisted.plugins.twisted_news'
p162
sg10
Nsg11
(lp163
g3
(g13
g5
NtRp164
(dp165
g16
(lp166
g18
ag92
asg20
g160
sg21
S'TwistedNews'
p167
sg10
g94
sbasbsS'twisted_socks'
p168
g3
(g4
g5
NtRp169
(dp170
g8
S'twisted.plugins.twisted_socks'
p171
sg10
Nsg11
(lp172
g3
(g13
g5
NtRp173
(dp174
g16
(lp175
g18
ag92
asg20
g169
sg21
S'TwistedSOCKS'
p176
sg10
g94
sbasbsS'twisted_manhole'
p177
g3
(g4
g5
NtRp178
(dp179
g8
S'twisted.plugins.twisted_manhole'
p180
sg10
Nsg11
(lp181
g3
(g13
g5
NtRp182
(dp183
g16
(lp184
g18
ag92
asg20
g178
sg21
S'TwistedManhole'
p185
sg10
g94
sbasbsS'twisted_qtstub'
p186
g3
(g4
g5
NtRp187
(dp188
g8
S'twisted.plugins.twisted_qtstub'
p189
sg10
S'\nBackwards-compatibility plugin for the Qt reactor.\n\nThis provides a Qt reactor plugin named C{qt} which emits a deprecation\nwarning and a pointer to the separately distributed Qt reactor plugins.\n'
p190
sg11
(lp191
g3
(g13
g5
NtRp192
(dp193
g16
(lp194
g18
ag19
asg20
g187
sg21
S'qt'
p195
sg10
S'\n    Reactor plugin which emits a deprecation warning on the successful\n    installation of its reactor or a pointer to further information if an\n    ImportError occurs while attempting to install it.\n    '
p196
sbasbsS'cred_unix'
p197
g3
(g4
g5
NtRp198
(dp199
g8
S'twisted.plugins.cred_unix'
p200
sg10
S'\nCred plugin for UNIX user accounts.\n'
p201
sg11
(lp202
g3
(g13
g5
NtRp203
(dp204
g16
(lp205
g81
ag18
asg20
g198
sg21
S'theUnixCheckerFactory'
p206
sg10
S'\n    A factory for L{UNIXChecker}.\n    '
p207
sbasbsS'twisted_words'
p208
g3
(g4
g5
NtRp209
(dp210
g8
S'twisted.plugins.twisted_words'
p211
sg10
Nsg11
(lp212
g3
(g13
g5
NtRp213
(dp214
g16
(lp215
g18
ag92
asg20
g209
sg21
S'TwistedXMPPRouter'
p216
sg10
g94
sbag3
(g13
g5
NtRp217
(dp218
g16
(lp219
g18
actwisted.words.iwords
IProtocolPlugin
p220
asg20
g209
sg21
S'RelayChatInterface'
p221
sg10
Nsbag3
(g13
g5
NtRp222
(dp223
g16
(lp224
g18
ag92
asg20
g209
sg21
S'NewTwistedWords'
p225
sg10
g94
sbag3
(g13
g5
NtRp226
(dp227
g16
(lp228
g18
ag220
asg20
g209
sg21
S'PBChatInterface'
p229
sg10
Nsbag3
(g13
g5
NtRp230
(dp231
g16
(lp232
g18
ag92
asg20
g209
sg21
S'TwistedTOC'
p233
sg10
g94
sbasbsS'cred_anonymous'
p234
g3
(g4
g5
NtRp235
(dp236
g8
S'twisted.plugins.cred_anonymous'
p237
sg10
S'\nCred plugin for anonymous logins.\n'
p238
sg11
(lp239
g3
(g13
g5
NtRp240
(dp241
g16
(lp242
g81
ag18
asg20
g235
sg21
S'theAnonymousCheckerFactory'
p243
sg10
S'\n    Generates checkers that will authenticate an anonymous request.\n    '
p244
sbasbsS'twisted_lore'
p245
g3
(g4
g5
NtRp246
(dp247
g8
S'twisted.plugins.twisted_lore'
p248
sg10
Nsg11
(lp249
g3
(g13
g5
NtRp250
(dp251
g16
(lp252
g18
actwisted.lore.scripts.lore
IProcessor
p253
asg20
g246
sg21
S'SlideProcessor'
p254
sg10
Nsbag3
(g13
g5
NtRp255
(dp256
g16
(lp257
g18
ag253
asg20
g246
sg21
S'DefaultProcessor'
p258
sg10
Nsbag3
(g13
g5
NtRp259
(dp260
g16
(lp261
g18
ag253
asg20
g246
sg21
S'MathProcessor'
p262
sg10
Nsbag3
(g13
g5
NtRp263
(dp264
g16
(lp265
g18
ag253
asg20
g246
sg21
S'NevowProcessor'
p266
sg10
Nsbag3
(g13
g5
NtRp267
(dp268
g16
(lp269
g18
ag253
asg20
g246
sg21
S'ManProcessor'
p270
sg10
NsbasbsS'twisted_names'
p271
g3
(g4
g5
NtRp272
(dp273
g8
S'twisted.plugins.twisted_names'
p274
sg10
Nsg11
(lp275
g3
(g13
g5
NtRp276
(dp277
g16
(lp278
g18
ag92
asg20
g272
sg21
S'TwistedNames'
p279
sg10
g94
sbasbsS'twisted_mail'
p280
g3
(g4
g5
NtRp281
(dp282
g8
S'twisted.plugins.twisted_mail'
p283
sg10
Nsg11
(lp284
g3
(g13
g5
NtRp285
(dp286
g16
(lp287
g18
ag92
asg20
g281
sg21
S'TwistedMail'
p288
sg10
g94
sbasbsS'twisted_conch'
p289
g3
(g4
g5
NtRp290
(dp291
g8
S'twisted.plugins.twisted_conch'
p292
sg10
Nsg11
(lp293
g3
(g13
g5
NtRp294
(dp295
g16
(lp296
g18
ag92
asg20
g290
sg21
g185
sg10
g94
sbag3
(g13
g5
NtRp297
(dp298
g16
(lp299
g18
ag92
asg20
g290
sg21
S'TwistedSSH'
p300
sg10
g94
sbasbsS'twisted_portforward'
p301
g3
(g4
g5
NtRp302
(dp303
g8
S'twisted.plugins.twisted_portforward'
p304
sg10
Nsg11
(lp305
g3
(g13
g5
NtRp306
(dp307
g16
(lp308
g18
ag92
asg20
g302
sg21
S'TwistedPortForward'
p309
sg10
g94
sbasbs.